target datalayout = "e-m:e-p270:32:32-p271:32:32-p272:64:64-i64:64-i128:128-f80:128-n8:16:32:64-S128"
target triple = "x86_64-pc-linux-gnu"

%struct.qemu_info_t = type { ptr, %struct.anon, i8, %union.anon }
%struct.anon = type { i32, i32 }
%union.anon = type { %struct.anon.0 }
%struct.anon.0 = type { i32, i32 }

@cpus = internal global ptr null, align 8
@.str = private unnamed_addr constant [2 x i8] c"=\00", align 1
@.str.1 = private unnamed_addr constant [8 x i8] c"ifilter\00", align 1
@.str.2 = private unnamed_addr constant [8 x i8] c"afilter\00", align 1
@.str.3 = private unnamed_addr constant [4 x i8] c"reg\00", align 1
@.str.4 = private unnamed_addr constant [7 x i8] c"rdisas\00", align 1
@disas_assist = internal global i8 0, align 1
@stderr = external global ptr, align 8
@.str.5 = private unnamed_addr constant [37 x i8] c"boolean argument parsing failed: %s\0A\00", align 1
@all_reg_names = internal global ptr null, align 8
@.str.6 = private unnamed_addr constant [27 x i8] c"option parsing failed: %s\0A\00", align 1
@imatches = internal global ptr null, align 8
@amatches = internal global ptr null, align 8
@rmatches = internal global ptr null, align 8

; Function Attrs: inlinehint nounwind sspstrong uwtable
define internal void @glib_auto_cleanup_GStrv(ptr noundef %0) #3 {
  %2 = alloca ptr, align 8
  store ptr %0, ptr %2, align 8
  %3 = load ptr, ptr %2, align 8
  %4 = load ptr, ptr %3, align 8
  %5 = icmp ne ptr %4, null
  br i1 %5, label %6, label %9

6:                                                ; preds = %1
  %7 = load ptr, ptr %2, align 8
  %8 = load ptr, ptr %7, align 8
  call void @g_strfreev(ptr noundef %8)
  br label %9

9:                                                ; preds = %6, %1
  ret void
}

; Function Attrs: nounwind sspstrong uwtable
define internal void @add_regpat(ptr noundef %0) #0 {
  %2 = alloca ptr, align 8
  store ptr %0, ptr %2, align 8
  %3 = load ptr, ptr @rmatches, align 8
  %4 = icmp ne ptr %3, null
  br i1 %4, label %7, label %5

5:                                                ; preds = %1
  %6 = call ptr @g_ptr_array_new()
  store ptr %6, ptr @rmatches, align 8
  br label %7

7:                                                ; preds = %5, %1
  %8 = load ptr, ptr @rmatches, align 8
  %9 = load ptr, ptr %2, align 8
  %10 = call noalias ptr @g_strdup(ptr noundef %9)
  call void @g_ptr_array_add(ptr noundef %8, ptr noundef %10)
  ret void
}

; Function Attrs: nounwind sspstrong uwtable
define internal void @parse_vaddr_match(ptr noundef %0) #0 {
  %2 = alloca ptr, align 8
  %3 = alloca i64, align 8
  store ptr %0, ptr %2, align 8
  call void @llvm.lifetime.start.p0(i64 8, ptr %3) #11
  %4 = load ptr, ptr %2, align 8
  %5 = call i64 @g_ascii_strtoull(ptr noundef %4, ptr noundef null, i32 noundef 16)
  store i64 %5, ptr %3, align 8
  %6 = load ptr, ptr @amatches, align 8
  %7 = icmp ne ptr %6, null
  br i1 %7, label %10, label %8

8:                                                ; preds = %1
  %9 = call ptr @g_array_new(i32 noundef 0, i32 noundef 1, i32 noundef 8)
  store ptr %9, ptr @amatches, align 8
  br label %10

10:                                               ; preds = %8, %1
  %11 = load ptr, ptr @amatches, align 8
  %12 = call ptr @g_array_append_vals(ptr noundef %11, ptr noundef %3, i32 noundef 1)
  call void @llvm.lifetime.end.p0(i64 8, ptr %3) #11
  ret void
}

; Function Attrs: nounwind sspstrong uwtable
define internal void @parse_insn_match(ptr noundef %0) #0 {
  %2 = alloca ptr, align 8
  store ptr %0, ptr %2, align 8
  %3 = load ptr, ptr @imatches, align 8
  %4 = icmp ne ptr %3, null
  br i1 %4, label %7, label %5

5:                                                ; preds = %1
  %6 = call ptr @g_ptr_array_new()
  store ptr %6, ptr @imatches, align 8
  br label %7

7:                                                ; preds = %5, %1
  %8 = load ptr, ptr @imatches, align 8
  %9 = load ptr, ptr %2, align 8
  %10 = call noalias ptr @g_strdup(ptr noundef %9)
  call void @g_ptr_array_add(ptr noundef %8, ptr noundef %10)
  ret void
}

; Function Attrs: nounwind sspstrong uwtable
define i32 @qemu_plugin_install(i64 noundef %0, ptr noundef %1, i32 noundef %2, ptr noundef %3) #0 {
  %5 = alloca i32, align 4
  %6 = alloca i64, align 8
  %7 = alloca ptr, align 8
  %8 = alloca i32, align 4
  %9 = alloca ptr, align 8
  %10 = alloca i32, align 4
  %11 = alloca i32, align 4
  %12 = alloca ptr, align 8
  %13 = alloca ptr, align 8
  store i64 %0, ptr %6, align 8
  store ptr %1, ptr %7, align 8
  store i32 %2, ptr %8, align 4
  store ptr %3, ptr %9, align 8
  %14 = load ptr, ptr %7, align 8
  %15 = getelementptr inbounds nuw %struct.qemu_info_t, ptr %14, i32 0, i32 2
  %16 = load i8, ptr %15, align 8, !range !3, !noundef !4
  %17 = trunc i8 %16 to i1
  br i1 %17, label %18, label %23

18:                                               ; preds = %4
  %19 = load ptr, ptr %7, align 8
  %20 = getelementptr inbounds nuw %struct.qemu_info_t, ptr %19, i32 0, i32 3
  %21 = getelementptr inbounds nuw %struct.anon.0, ptr %20, i32 0, i32 1
  %22 = load i32, ptr %21, align 4
  br label %24

23:                                               ; preds = %4
  br label %24

24:                                               ; preds = %23, %18
  %25 = phi i32 [ %22, %18 ], [ 1, %23 ]
  %26 = call ptr @g_array_sized_new(i32 noundef 1, i32 noundef 1, i32 noundef 16, i32 noundef %25)
  store ptr %26, ptr @cpus, align 8
  call void @llvm.lifetime.start.p0(i64 4, ptr %10) #11
  store i32 0, ptr %10, align 4
  br label %27

27:                                               ; preds = %100, %24
  %28 = load i32, ptr %10, align 4
  %29 = load i32, ptr %8, align 4
  %30 = icmp slt i32 %28, %29
  br i1 %30, label %32, label %31

31:                                               ; preds = %27
  store i32 2, ptr %11, align 4
  br label %103

32:                                               ; preds = %27
  call void @llvm.lifetime.start.p0(i64 8, ptr %12) #11
  %33 = load ptr, ptr %9, align 8
  %34 = load i32, ptr %10, align 4
  %35 = sext i32 %34 to i64
  %36 = getelementptr inbounds ptr, ptr %33, i64 %35
  %37 = load ptr, ptr %36, align 8
  store ptr %37, ptr %12, align 8
  call void @llvm.lifetime.start.p0(i64 8, ptr %13) #11
  %38 = load ptr, ptr %12, align 8
  %39 = call ptr @g_strsplit(ptr noundef %38, ptr noundef @.str, i32 noundef 2)
  store ptr %39, ptr %13, align 8
  %40 = load ptr, ptr %13, align 8
  %41 = getelementptr inbounds ptr, ptr %40, i64 0
  %42 = load ptr, ptr %41, align 8
  %43 = call i32 @g_strcmp0(ptr noundef %42, ptr noundef @.str.1)
  %44 = icmp eq i32 %43, 0
  br i1 %44, label %45, label %49

45:                                               ; preds = %32
  %46 = load ptr, ptr %13, align 8
  %47 = getelementptr inbounds ptr, ptr %46, i64 1
  %48 = load ptr, ptr %47, align 8
  call void @parse_insn_match(ptr noundef %48)
  br label %96

49:                                               ; preds = %32
  %50 = load ptr, ptr %13, align 8
  %51 = getelementptr inbounds ptr, ptr %50, i64 0
  %52 = load ptr, ptr %51, align 8
  %53 = call i32 @g_strcmp0(ptr noundef %52, ptr noundef @.str.2)
  %54 = icmp eq i32 %53, 0
  br i1 %54, label %55, label %59

55:                                               ; preds = %49
  %56 = load ptr, ptr %13, align 8
  %57 = getelementptr inbounds ptr, ptr %56, i64 1
  %58 = load ptr, ptr %57, align 8
  call void @parse_vaddr_match(ptr noundef %58)
  br label %95

59:                                               ; preds = %49
  %60 = load ptr, ptr %13, align 8
  %61 = getelementptr inbounds ptr, ptr %60, i64 0
  %62 = load ptr, ptr %61, align 8
  %63 = call i32 @g_strcmp0(ptr noundef %62, ptr noundef @.str.3)
  %64 = icmp eq i32 %63, 0
  br i1 %64, label %65, label %69

65:                                               ; preds = %59
  %66 = load ptr, ptr %13, align 8
  %67 = getelementptr inbounds ptr, ptr %66, i64 1
  %68 = load ptr, ptr %67, align 8
  call void @add_regpat(ptr noundef %68)
  br label %94

69:                                               ; preds = %59
  %70 = load ptr, ptr %13, align 8
  %71 = getelementptr inbounds ptr, ptr %70, i64 0
  %72 = load ptr, ptr %71, align 8
  %73 = call i32 @g_strcmp0(ptr noundef %72, ptr noundef @.str.4)
  %74 = icmp eq i32 %73, 0
  br i1 %74, label %75, label %89

75:                                               ; preds = %69
  %76 = load ptr, ptr %13, align 8
  %77 = getelementptr inbounds ptr, ptr %76, i64 0
  %78 = load ptr, ptr %77, align 8
  %79 = load ptr, ptr %13, align 8
  %80 = getelementptr inbounds ptr, ptr %79, i64 1
  %81 = load ptr, ptr %80, align 8
  %82 = call zeroext i1 @qemu_plugin_bool_parse(ptr noundef %78, ptr noundef %81, ptr noundef @disas_assist)
  br i1 %82, label %87, label %83

83:                                               ; preds = %75
  %84 = load ptr, ptr @stderr, align 8
  %85 = load ptr, ptr %12, align 8
  %86 = call i32 (ptr, ptr, ...) @fprintf(ptr noundef %84, ptr noundef @.str.5, ptr noundef %85) #11
  store i32 -1, ptr %5, align 4
  store i32 1, ptr %11, align 4
  br label %97

87:                                               ; preds = %75
  %88 = call ptr @g_ptr_array_new()
  store ptr %88, ptr @all_reg_names, align 8
  br label %93

89:                                               ; preds = %69
  %90 = load ptr, ptr @stderr, align 8
  %91 = load ptr, ptr %12, align 8
  %92 = call i32 (ptr, ptr, ...) @fprintf(ptr noundef %90, ptr noundef @.str.6, ptr noundef %91) #11
  store i32 -1, ptr %5, align 4
  store i32 1, ptr %11, align 4
  br label %97

93:                                               ; preds = %87
  br label %94

94:                                               ; preds = %93, %65
  br label %95

95:                                               ; preds = %94, %55
  br label %96

96:                                               ; preds = %95, %45
  store i32 0, ptr %11, align 4
  br label %97

97:                                               ; preds = %96, %89, %83
  call void @glib_auto_cleanup_GStrv(ptr noundef %13)
  call void @llvm.lifetime.end.p0(i64 8, ptr %13) #11
  call void @llvm.lifetime.end.p0(i64 8, ptr %12) #11
  %98 = load i32, ptr %11, align 4
  switch i32 %98, label %103 [
    i32 0, label %99
  ]

99:                                               ; preds = %97
  br label %100

100:                                              ; preds = %99
  %101 = load i32, ptr %10, align 4
  %102 = add i32 %101, 1
  store i32 %102, ptr %10, align 4
  br label %27, !llvm.loop !5

103:                                              ; preds = %97, %31
  call void @llvm.lifetime.end.p0(i64 4, ptr %10) #11
  %104 = load i32, ptr %11, align 4
  switch i32 %104, label %111 [
    i32 2, label %105
    i32 1, label %109
  ]

105:                                              ; preds = %103
  %106 = load i64, ptr %6, align 8
  call void @qemu_plugin_register_vcpu_init_cb(i64 noundef %106, ptr noundef @vcpu_init)
  %107 = load i64, ptr %6, align 8
  call void @qemu_plugin_register_vcpu_tb_trans_cb(i64 noundef %107, ptr noundef @vcpu_tb_trans)
  %108 = load i64, ptr %6, align 8
  call void @qemu_plugin_register_atexit_cb(i64 noundef %108, ptr noundef @plugin_exit, ptr noundef null)
  store i32 0, ptr %5, align 4
  br label %109

109:                                              ; preds = %105, %103
  %110 = load i32, ptr %5, align 4
  ret i32 %110

111:                                              ; preds = %103
  unreachable
}