; Function Attrs: nounwind sspstrong uwtable
define range(i32 -1, 1) i32 @qemu_plugin_install(i64 noundef %0, ptr noundef readonly captures(none) %1, i32 noundef %2, ptr noundef readonly captures(none) %3) local_unnamed_addr #0 {
  %5 = alloca i64, align 8
  %6 = getelementptr inbounds nuw i8, ptr %1, i64 16
  %7 = load i8, ptr %6, align 8, !range !3, !noundef !4
  %8 = trunc nuw i8 %7 to i1
  br i1 %8, label %9, label %12

9:                                                ; preds = %4
  %10 = getelementptr inbounds nuw i8, ptr %1, i64 24
  %11 = load i32, ptr %10, align 4
  br label %12

12:                                               ; preds = %4, %9
  %13 = phi i32 [ %11, %9 ], [ 1, %4 ]
  %14 = tail call ptr @g_array_sized_new(i32 noundef 1, i32 noundef 1, i32 noundef 16, i32 noundef %13) #7
  store ptr %14, ptr @cpus, align 8
  %15 = icmp sgt i32 %2, 0
  br i1 %15, label %.lr.ph.preheader, label %._crit_edge

.lr.ph.preheader:                                 ; preds = %12
  %wide.trip.count = zext nneg i32 %2 to i64
  br label %.lr.ph

.lr.ph:                                           ; preds = %.lr.ph.preheader, %glib_auto_cleanup_GStrv.exit
  %indvars.iv = phi i64 [ 0, %.lr.ph.preheader ], [ %indvars.iv.next, %glib_auto_cleanup_GStrv.exit ]
  %16 = getelementptr inbounds nuw ptr, ptr %3, i64 %indvars.iv
  %17 = load ptr, ptr %16, align 8
  %18 = call ptr @g_strsplit(ptr noundef %17, ptr noundef nonnull @.str, i32 noundef 2) #7
  %19 = load ptr, ptr %18, align 8
  %20 = call i32 @g_strcmp0(ptr noundef %19, ptr noundef nonnull @.str.1) #7
  %21 = icmp eq i32 %20, 0
  br i1 %21, label %22, label %30

22:                                               ; preds = %.lr.ph
  %23 = getelementptr inbounds nuw i8, ptr %18, i64 8
  %24 = load ptr, ptr %23, align 8
  %25 = load ptr, ptr @imatches, align 8
  %.not.i = icmp eq ptr %25, null
  br i1 %.not.i, label %26, label %parse_insn_match.exit

26:                                               ; preds = %22
  %27 = call ptr @g_ptr_array_new() #7
  store ptr %27, ptr @imatches, align 8
  br label %parse_insn_match.exit

parse_insn_match.exit:                            ; preds = %22, %26
  %28 = phi ptr [ %27, %26 ], [ %25, %22 ]
  %29 = call noalias ptr @g_strdup(ptr noundef %24) #7
  call void @g_ptr_array_add(ptr noundef %28, ptr noundef %29) #7
  br label %glib_auto_cleanup_GStrv.exit

30:                                               ; preds = %.lr.ph
  %31 = load ptr, ptr %18, align 8
  %32 = call i32 @g_strcmp0(ptr noundef %31, ptr noundef nonnull @.str.2) #7
  %33 = icmp eq i32 %32, 0
  br i1 %33, label %34, label %43

34:                                               ; preds = %30
  %35 = getelementptr inbounds nuw i8, ptr %18, i64 8
  %36 = load ptr, ptr %35, align 8
  call void @llvm.lifetime.start.p0(i64 8, ptr nonnull %5) #7
  %37 = call i64 @g_ascii_strtoull(ptr noundef %36, ptr noundef null, i32 noundef 16) #7
  store i64 %37, ptr %5, align 8
  %38 = load ptr, ptr @amatches, align 8
  %.not.i19 = icmp eq ptr %38, null
  br i1 %.not.i19, label %39, label %parse_vaddr_match.exit

39:                                               ; preds = %34
  %40 = call ptr @g_array_new(i32 noundef 0, i32 noundef 1, i32 noundef 8) #7
  store ptr %40, ptr @amatches, align 8
  br label %parse_vaddr_match.exit

parse_vaddr_match.exit:                           ; preds = %34, %39
  %41 = phi ptr [ %40, %39 ], [ %38, %34 ]
  %42 = call ptr @g_array_append_vals(ptr noundef %41, ptr noundef nonnull %5, i32 noundef 1) #7
  call void @llvm.lifetime.end.p0(i64 8, ptr nonnull %5) #7
  br label %glib_auto_cleanup_GStrv.exit

43:                                               ; preds = %30
  %44 = load ptr, ptr %18, align 8
  %45 = call i32 @g_strcmp0(ptr noundef %44, ptr noundef nonnull @.str.3) #7
  %46 = icmp eq i32 %45, 0
  br i1 %46, label %47, label %55

47:                                               ; preds = %43
  %48 = getelementptr inbounds nuw i8, ptr %18, i64 8
  %49 = load ptr, ptr %48, align 8
  %50 = load ptr, ptr @rmatches, align 8
  %.not.i20 = icmp eq ptr %50, null
  br i1 %.not.i20, label %51, label %add_regpat.exit

51:                                               ; preds = %47
  %52 = call ptr @g_ptr_array_new() #7
  store ptr %52, ptr @rmatches, align 8
  br label %add_regpat.exit

add_regpat.exit:                                  ; preds = %47, %51
  %53 = phi ptr [ %52, %51 ], [ %50, %47 ]
  %54 = call noalias ptr @g_strdup(ptr noundef %49) #7
  call void @g_ptr_array_add(ptr noundef %53, ptr noundef %54) #7
  br label %glib_auto_cleanup_GStrv.exit

55:                                               ; preds = %43
  %56 = load ptr, ptr %18, align 8
  %57 = call i32 @g_strcmp0(ptr noundef %56, ptr noundef nonnull @.str.4) #7
  %58 = icmp eq i32 %57, 0
  br i1 %58, label %59, label %66

59:                                               ; preds = %55
  %60 = load ptr, ptr %18, align 8
  %61 = getelementptr inbounds nuw i8, ptr %18, i64 8
  %62 = load ptr, ptr %61, align 8
  %63 = call zeroext i1 @qemu_plugin_bool_parse(ptr noundef %60, ptr noundef %62, ptr noundef nonnull @disas_assist) #7
  br i1 %63, label %64, label %66

64:                                               ; preds = %59
  %65 = call ptr @g_ptr_array_new() #7
  store ptr %65, ptr @all_reg_names, align 8
  br label %glib_auto_cleanup_GStrv.exit

glib_auto_cleanup_GStrv.exit:                     ; preds = %parse_insn_match.exit, %add_regpat.exit, %64, %parse_vaddr_match.exit
  call void @g_strfreev(ptr noundef nonnull %18) #7
  %indvars.iv.next = add nuw nsw i64 %indvars.iv, 1
  %exitcond.not = icmp eq i64 %indvars.iv.next, %wide.trip.count
  br i1 %exitcond.not, label %._crit_edge, label %.lr.ph, !llvm.loop !5

66:                                               ; preds = %55, %59
  %.str.5.sink = phi ptr [ @.str.5, %59 ], [ @.str.6, %55 ]
  %67 = load ptr, ptr @stderr, align 8
  %68 = call i32 (ptr, ptr, ...) @fprintf(ptr noundef %67, ptr noundef nonnull %.str.5.sink, ptr noundef %17) #8
  call void @g_strfreev(ptr noundef nonnull %18) #7
  br label %69

._crit_edge:                                      ; preds = %glib_auto_cleanup_GStrv.exit, %12
  call void @qemu_plugin_register_vcpu_init_cb(i64 noundef %0, ptr noundef nonnull @vcpu_init) #7
  call void @qemu_plugin_register_vcpu_tb_trans_cb(i64 noundef %0, ptr noundef nonnull @vcpu_tb_trans) #7
  call void @qemu_plugin_register_atexit_cb(i64 noundef %0, ptr noundef nonnull @plugin_exit, ptr noundef null) #7
  br label %69

69:                                               ; preds = %66, %._crit_edge
  %.3 = phi i32 [ -1, %66 ], [ 0, %._crit_edge ]
  ret i32 %.3
}